target datalayout = "e-m:e-p270:32:32-p271:32:32-p272:64:64-i64:64-i128:128-f80:128-n8:16:32:64-S128"
target triple = "x86_64-pc-linux-gnu"

%"class.cv::Size_" = type { i32, i32 }
%"class.cv::Mat" = type { i32, i32, i32, i32, ptr, ptr, ptr, ptr, ptr, ptr, %"struct.cv::MatSize", %"struct.cv::MatStep" }
%"struct.cv::MatSize" = type { ptr }
%"struct.cv::MatStep" = type { ptr, [2 x i64] }
%"class.cv::Range" = type { i32, i32 }
%"class.cv::ParallelLoopBody" = type { ptr }
%"class.cv::resizeGeneric_Invoker.20" = type <{ %"class.cv::ParallelLoopBody", %"class.cv::Mat", %"class.cv::Mat", ptr, ptr, ptr, ptr, %"class.cv::Size_", %"class.cv::Size_", i32, i32, i32, [4 x i8] }>

; Function Attrs: inlinehint mustprogress nounwind uwtable
define linkonce_odr hidden void @_ZN2cv5Size_IiEC2Eii(ptr noundef nonnull align 4 dereferenceable(8) %0, i32 noundef %1, i32 noundef %2) unnamed_addr #5 comdat align 2 {
  %4 = alloca ptr, align 8
  %5 = alloca i32, align 4
  %6 = alloca i32, align 4
  store ptr %0, ptr %4, align 8, !tbaa !56
  store i32 %1, ptr %5, align 4, !tbaa !3
  store i32 %2, ptr %6, align 4, !tbaa !3
  %7 = load ptr, ptr %4, align 8
  %8 = getelementptr inbounds nuw %"class.cv::Size_", ptr %7, i32 0, i32 0
  %9 = load i32, ptr %5, align 4, !tbaa !3
  store i32 %9, ptr %8, align 4, !tbaa !20
  %10 = getelementptr inbounds nuw %"class.cv::Size_", ptr %7, i32 0, i32 1
  %11 = load i32, ptr %6, align 4, !tbaa !3
  store i32 %11, ptr %10, align 4, !tbaa !31
  ret void
}

; Function Attrs: inlinehint mustprogress nounwind uwtable
define linkonce_odr hidden void @_ZN2cv5RangeC2Eii(ptr noundef nonnull align 4 dereferenceable(8) %0, i32 noundef %1, i32 noundef %2) unnamed_addr #5 comdat align 2 {
  %4 = alloca ptr, align 8
  %5 = alloca i32, align 4
  %6 = alloca i32, align 4
  store ptr %0, ptr %4, align 8, !tbaa !130
  store i32 %1, ptr %5, align 4, !tbaa !3
  store i32 %2, ptr %6, align 4, !tbaa !3
  %7 = load ptr, ptr %4, align 8
  %8 = getelementptr inbounds nuw %"class.cv::Range", ptr %7, i32 0, i32 0
  %9 = load i32, ptr %5, align 4, !tbaa !3
  store i32 %9, ptr %8, align 4, !tbaa !132
  %10 = getelementptr inbounds nuw %"class.cv::Range", ptr %7, i32 0, i32 1
  %11 = load i32, ptr %6, align 4, !tbaa !3
  store i32 %11, ptr %10, align 4, !tbaa !134
  ret void
}

; Function Attrs: inlinehint mustprogress nounwind uwtable
define linkonce_odr hidden noundef i32 @_ZNK2cv3Mat8channelsEv(ptr noundef nonnull align 8 dereferenceable(96) %0) #5 comdat align 2 {
  %2 = alloca ptr, align 8
  store ptr %0, ptr %2, align 8, !tbaa !58
  %3 = load ptr, ptr %2, align 8
  %4 = getelementptr inbounds nuw %"class.cv::Mat", ptr %3, i32 0, i32 0
  %5 = load i32, ptr %4, align 8, !tbaa !87
  %6 = and i32 %5, 4088
  %7 = ashr i32 %6, 3
  %8 = add nsw i32 %7, 1
  ret i32 %8
}

; Function Attrs: inlinehint mustprogress uwtable
define linkonce_odr hidden i64 @_ZNK2cv7MatSizeclEv(ptr noundef nonnull align 8 dereferenceable(8) %0) #6 comdat align 2 {
  %2 = alloca %"class.cv::Size_", align 4
  %3 = alloca ptr, align 8
  store ptr %0, ptr %3, align 8, !tbaa !124
  %4 = load ptr, ptr %3, align 8
  %5 = getelementptr inbounds nuw %"struct.cv::MatSize", ptr %4, i32 0, i32 0
  %6 = load ptr, ptr %5, align 8, !tbaa !126
  %7 = getelementptr inbounds i32, ptr %6, i64 1
  %8 = load i32, ptr %7, align 4, !tbaa !3
  %9 = getelementptr inbounds nuw %"struct.cv::MatSize", ptr %4, i32 0, i32 0
  %10 = load ptr, ptr %9, align 8, !tbaa !126
  %11 = getelementptr inbounds i32, ptr %10, i64 0
  %12 = load i32, ptr %11, align 4, !tbaa !3
  call void @_ZN2cv5Size_IiEC2Eii(ptr noundef nonnull align 4 dereferenceable(8) %2, i32 noundef %8, i32 noundef %12)
  %13 = load i64, ptr %2, align 4
  ret i64 %13
}

; Function Attrs: mustprogress uwtable
define internal void @_ZN2cvL14resizeGeneric_INS_13HResizeLinearIddfLi1ENS_12HResizeNoVecEEENS_13VResizeLinearIddfNS_4CastIddEENS_12VResizeNoVecEEEEEvRKNS_3MatERS9_PKiPKvSE_SG_iii(ptr noundef nonnull align 8 dereferenceable(96) %0, ptr noundef nonnull align 8 dereferenceable(96) %1, ptr noundef %2, ptr noundef %3, ptr noundef %4, ptr noundef %5, i32 noundef %6, i32 noundef %7, i32 noundef %8) #0 personality ptr @__gxx_personality_v0 {
  %10 = alloca ptr, align 8
  %11 = alloca ptr, align 8
  %12 = alloca ptr, align 8
  %13 = alloca ptr, align 8
  %14 = alloca ptr, align 8
  %15 = alloca ptr, align 8
  %16 = alloca i32, align 4
  %17 = alloca i32, align 4
  %18 = alloca i32, align 4
  %19 = alloca ptr, align 8
  %20 = alloca %"class.cv::Size_", align 4
  %21 = alloca %"class.cv::Size_", align 4
  %22 = alloca i32, align 4
  %23 = alloca %"class.cv::Range", align 4
  %24 = alloca %"class.cv::resizeGeneric_Invoker.20", align 8
  %25 = alloca ptr, align 8
  %26 = alloca i32, align 4
  store ptr %0, ptr %10, align 8, !tbaa !58
  store ptr %1, ptr %11, align 8, !tbaa !58
  store ptr %2, ptr %12, align 8, !tbaa !22
  store ptr %3, ptr %13, align 8, !tbaa !19
  store ptr %4, ptr %14, align 8, !tbaa !22
  store ptr %5, ptr %15, align 8, !tbaa !19
  store i32 %6, ptr %16, align 4, !tbaa !3
  store i32 %7, ptr %17, align 4, !tbaa !3
  store i32 %8, ptr %18, align 4, !tbaa !3
  call void @llvm.lifetime.start.p0(i64 8, ptr %19) #19
  %27 = load ptr, ptr %15, align 8, !tbaa !19
  store ptr %27, ptr %19, align 8, !tbaa !36
  call void @llvm.lifetime.start.p0(i64 8, ptr %20) #19
  %28 = load ptr, ptr %10, align 8, !tbaa !58
  %29 = getelementptr inbounds nuw %"class.cv::Mat", ptr %28, i32 0, i32 10
  %30 = call i64 @_ZNK2cv7MatSizeclEv(ptr noundef nonnull align 8 dereferenceable(8) %29)
  store i64 %30, ptr %20, align 4
  call void @llvm.lifetime.start.p0(i64 8, ptr %21) #19
  %31 = load ptr, ptr %11, align 8, !tbaa !58
  %32 = getelementptr inbounds nuw %"class.cv::Mat", ptr %31, i32 0, i32 10
  %33 = call i64 @_ZNK2cv7MatSizeclEv(ptr noundef nonnull align 8 dereferenceable(8) %32)
  store i64 %33, ptr %21, align 4
  call void @llvm.lifetime.start.p0(i64 4, ptr %22) #19
  %34 = load ptr, ptr %10, align 8, !tbaa !58
  %35 = call noundef i32 @_ZNK2cv3Mat8channelsEv(ptr noundef nonnull align 8 dereferenceable(96) %34)
  store i32 %35, ptr %22, align 4, !tbaa !3
  %36 = load i32, ptr %22, align 4, !tbaa !3
  %37 = getelementptr inbounds nuw %"class.cv::Size_", ptr %20, i32 0, i32 0
  %38 = load i32, ptr %37, align 4, !tbaa !20
  %39 = mul nsw i32 %38, %36
  store i32 %39, ptr %37, align 4, !tbaa !20
  %40 = load i32, ptr %22, align 4, !tbaa !3
  %41 = getelementptr inbounds nuw %"class.cv::Size_", ptr %21, i32 0, i32 0
  %42 = load i32, ptr %41, align 4, !tbaa !20
  %43 = mul nsw i32 %42, %40
  store i32 %43, ptr %41, align 4, !tbaa !20
  %44 = load i32, ptr %22, align 4, !tbaa !3
  %45 = load i32, ptr %16, align 4, !tbaa !3
  %46 = mul nsw i32 %45, %44
  store i32 %46, ptr %16, align 4, !tbaa !3
  %47 = load i32, ptr %22, align 4, !tbaa !3
  %48 = load i32, ptr %17, align 4, !tbaa !3
  %49 = mul nsw i32 %48, %47
  store i32 %49, ptr %17, align 4, !tbaa !3
  call void @llvm.lifetime.start.p0(i64 8, ptr %23) #19
  %50 = getelementptr inbounds nuw %"class.cv::Size_", ptr %21, i32 0, i32 1
  %51 = load i32, ptr %50, align 4, !tbaa !31
  call void @_ZN2cv5RangeC2Eii(ptr noundef nonnull align 4 dereferenceable(8) %23, i32 noundef 0, i32 noundef %51)
  call void @llvm.lifetime.start.p0(i64 264, ptr %24) #19
  %52 = load ptr, ptr %10, align 8, !tbaa !58
  %53 = load ptr, ptr %11, align 8, !tbaa !58
  %54 = load ptr, ptr %12, align 8, !tbaa !22
  %55 = load ptr, ptr %14, align 8, !tbaa !22
  %56 = load ptr, ptr %13, align 8, !tbaa !19
  %57 = load ptr, ptr %19, align 8, !tbaa !36
  %58 = load i32, ptr %18, align 4, !tbaa !3
  %59 = load i32, ptr %16, align 4, !tbaa !3
  %60 = load i32, ptr %17, align 4, !tbaa !3
  call void @_ZN2cv21resizeGeneric_InvokerINS_13HResizeLinearIddfLi1ENS_12HResizeNoVecEEENS_13VResizeLinearIddfNS_4CastIddEENS_12VResizeNoVecEEEEC2ERKNS_3MatERSA_PKiSF_PKfSH_RKNS_5Size_IiEESL_iii(ptr noundef nonnull align 8 dereferenceable(260) %24, ptr noundef nonnull align 8 dereferenceable(96) %52, ptr noundef nonnull align 8 dereferenceable(96) %53, ptr noundef %54, ptr noundef %55, ptr noundef %56, ptr noundef %57, ptr noundef nonnull align 4 dereferenceable(8) %20, ptr noundef nonnull align 4 dereferenceable(8) %21, i32 noundef %58, i32 noundef %59, i32 noundef %60)
  %61 = load ptr, ptr %11, align 8, !tbaa !58
  %62 = invoke noundef i64 @_ZNK2cv3Mat5totalEv(ptr noundef nonnull align 8 dereferenceable(96) %61)
          to label %63 unwind label %67

63:                                               ; preds = %9
  %64 = uitofp i64 %62 to double
  %65 = fdiv double %64, 6.553600e+04
  invoke void @_ZN2cv13parallel_for_ERKNS_5RangeERKNS_16ParallelLoopBodyEd(ptr noundef nonnull align 4 dereferenceable(8) %23, ptr noundef nonnull align 8 dereferenceable(8) %24, double noundef %65)
          to label %66 unwind label %67

66:                                               ; preds = %63
  call void @_ZN2cv21resizeGeneric_InvokerINS_13HResizeLinearIddfLi1ENS_12HResizeNoVecEEENS_13VResizeLinearIddfNS_4CastIddEENS_12VResizeNoVecEEEED2Ev(ptr noundef nonnull align 8 dereferenceable(260) %24) #19
  call void @llvm.lifetime.end.p0(i64 264, ptr %24) #19
  call void @llvm.lifetime.end.p0(i64 8, ptr %23) #19
  call void @llvm.lifetime.end.p0(i64 4, ptr %22) #19
  call void @llvm.lifetime.end.p0(i64 8, ptr %21) #19
  call void @llvm.lifetime.end.p0(i64 8, ptr %20) #19
  call void @llvm.lifetime.end.p0(i64 8, ptr %19) #19
  ret void

67:                                               ; preds = %63, %9
  %68 = landingpad { ptr, i32 }
          cleanup
  %69 = extractvalue { ptr, i32 } %68, 0
  store ptr %69, ptr %25, align 8
  %70 = extractvalue { ptr, i32 } %68, 1
  store i32 %70, ptr %26, align 4
  call void @_ZN2cv21resizeGeneric_InvokerINS_13HResizeLinearIddfLi1ENS_12HResizeNoVecEEENS_13VResizeLinearIddfNS_4CastIddEENS_12VResizeNoVecEEEED2Ev(ptr noundef nonnull align 8 dereferenceable(260) %24) #19
  call void @llvm.lifetime.end.p0(i64 264, ptr %24) #19
  call void @llvm.lifetime.end.p0(i64 8, ptr %23) #19
  call void @llvm.lifetime.end.p0(i64 4, ptr %22) #19
  call void @llvm.lifetime.end.p0(i64 8, ptr %21) #19
  call void @llvm.lifetime.end.p0(i64 8, ptr %20) #19
  call void @llvm.lifetime.end.p0(i64 8, ptr %19) #19
  br label %71

71:                                               ; preds = %67
  %72 = load ptr, ptr %25, align 8
  %73 = load i32, ptr %26, align 4
  %74 = insertvalue { ptr, i32 } poison, ptr %72, 0
  %75 = insertvalue { ptr, i32 } %74, i32 %73, 1
  resume { ptr, i32 } %75
}